; Function Attrs: mustprogress uwtable
define noundef i32 @_ZN15MainApplication17monospaceTextSizeEPKc(ptr noundef nonnull align 8 dereferenceable(216) %0, ptr noundef %1) local_unnamed_addr #3 align 2 personality ptr @__gxx_personality_v0 {
  %3 = alloca %class.QString, align 16
  %4 = alloca %class.QFontMetrics, align 8
  %5 = alloca %class.QString, align 16
  %6 = getelementptr inbounds i8, ptr %0, i64 56
  call void @_ZN12QFontMetricsC1ERK5QFont(ptr noundef nonnull align 8 dereferenceable(8) %4, ptr noundef nonnull align 8 dereferenceable(12) %6)
  call void @llvm.lifetime.start.p0(i64 24, ptr nonnull %3)
  %.not.i.i = icmp eq ptr %1, null
  br i1 %.not.i.i, label %_ZN7QStringD2Ev.exit.i, label %.split.i.i

.split.i.i:                                       ; preds = %2
  %7 = call noundef i64 @strlen(ptr noundef nonnull dereferenceable(1) %1) #26
  br label %_ZN7QStringD2Ev.exit.i

_ZN7QStringD2Ev.exit.i:                           ; preds = %.split.i.i, %2
  %.sink5.i.i = phi i64 [ %7, %.split.i.i ], [ 0, %2 ]
  invoke void @_ZN7QString8fromUtf8E14QByteArrayView(ptr dead_on_unwind nonnull writable sret(%class.QString) align 8 %3, i64 %.sink5.i.i, ptr %1)
          to label %8 unwind label %19

8:                                                ; preds = %_ZN7QStringD2Ev.exit.i
  %9 = load <2 x ptr>, ptr %3, align 16
  store <2 x ptr> %9, ptr %5, align 16
  %10 = getelementptr inbounds i8, ptr %5, i64 16
  %11 = getelementptr inbounds i8, ptr %3, i64 16
  %12 = load i64, ptr %11, align 16
  store i64 %12, ptr %10, align 16
  call void @llvm.lifetime.end.p0(i64 24, ptr nonnull %3)
  %13 = invoke noundef i32 @_ZNK12QFontMetrics17horizontalAdvanceERK7QStringi(ptr noundef nonnull align 8 dereferenceable(8) %4, ptr noundef nonnull align 8 dereferenceable(24) %5, i32 noundef -1)
          to label %14 unwind label %21

14:                                               ; preds = %8
  %15 = load ptr, ptr %5, align 16
  %.not.i.i.i = icmp eq ptr %15, null
  br i1 %.not.i.i.i, label %_ZN7QStringD2Ev.exit, label %_ZN17QArrayDataPointerIDsE5derefEv.exit.i.i

_ZN17QArrayDataPointerIDsE5derefEv.exit.i.i:      ; preds = %14
  %16 = atomicrmw sub ptr %15, i32 1 seq_cst, align 4
  %.not.i.i5 = icmp eq i32 %16, 1
  br i1 %.not.i.i5, label %17, label %_ZN7QStringD2Ev.exit

17:                                               ; preds = %_ZN17QArrayDataPointerIDsE5derefEv.exit.i.i
  %18 = load ptr, ptr %5, align 16
  call void @_ZN10QArrayData10deallocateEPS_xx(ptr noundef %18, i64 noundef 2, i64 noundef 8) #26
  br label %_ZN7QStringD2Ev.exit

_ZN7QStringD2Ev.exit:                             ; preds = %14, %_ZN17QArrayDataPointerIDsE5derefEv.exit.i.i, %17
  call void @_ZN12QFontMetricsD1Ev(ptr noundef nonnull align 8 dereferenceable(8) %4) #26
  ret i32 %13

19:                                               ; preds = %_ZN7QStringD2Ev.exit.i
  %20 = landingpad { ptr, i32 }
          cleanup
  br label %_ZN7QStringD2Ev.exit9

21:                                               ; preds = %8
  %22 = landingpad { ptr, i32 }
          cleanup
  %23 = load ptr, ptr %5, align 16
  %.not.i.i.i6 = icmp eq ptr %23, null
  br i1 %.not.i.i.i6, label %_ZN7QStringD2Ev.exit9, label %_ZN17QArrayDataPointerIDsE5derefEv.exit.i.i7

_ZN17QArrayDataPointerIDsE5derefEv.exit.i.i7:     ; preds = %21
  %24 = atomicrmw sub ptr %23, i32 1 seq_cst, align 4
  %.not.i.i8 = icmp eq i32 %24, 1
  br i1 %.not.i.i8, label %25, label %_ZN7QStringD2Ev.exit9

25:                                               ; preds = %_ZN17QArrayDataPointerIDsE5derefEv.exit.i.i7
  %26 = load ptr, ptr %5, align 16
  call void @_ZN10QArrayData10deallocateEPS_xx(ptr noundef %26, i64 noundef 2, i64 noundef 8) #26
  br label %_ZN7QStringD2Ev.exit9

_ZN7QStringD2Ev.exit9:                            ; preds = %25, %_ZN17QArrayDataPointerIDsE5derefEv.exit.i.i7, %21, %19
  %.pn = phi { ptr, i32 } [ %20, %19 ], [ %22, %21 ], [ %22, %_ZN17QArrayDataPointerIDsE5derefEv.exit.i.i7 ], [ %22, %25 ]
  call void @_ZN12QFontMetricsD1Ev(ptr noundef nonnull align 8 dereferenceable(8) %4) #26
  resume { ptr, i32 } %.pn
}